#include <math.h>
#include <stdio.h>
#include <stdlib.h>
#include <string.h>
#include <iostream>
using namespace std;

int a[100][300]={0};
void cheng(int t);
int main()
{
	int n;
	cin>>n;
	a[0][1]=1;
	int i,start;
	for(i=1;i<=n;i++) cheng(i);
	for(i=200;i>0;i--)
	{
		if(a[n][i]!=0) {start=i;break;}
	}
	for(i=start;i>0;i--) cout<<a[n][i];
	return 0;
}
void cheng(int t)
{
	int i;
	for(i=1;i<200;i++)
	{
		a[t][i]=a[t][i]+a[t-1][i]*2;
		if(a[t][i]>9) {a[t][i]=a[t][i]-10;a[t][i+1]++;}
		if(a[t][i+1]>9) {a[t][i+1]=a[t][i+1]-10;a[t][i+2]++;}
	}
} 