; ModuleID = '25/392.cpp'
source_filename = "25/392.cpp"
target datalayout = "e-m:e-p270:32:32-p271:32:32-p272:64:64-i64:64-f80:128-n8:16:32:64-S128"
target triple = "x86_64-pc-linux-gnu"

%"class.std::ios_base::Init" = type { i8 }
%"class.std::basic_istream" = type { i32 (...)**, i64, %"class.std::basic_ios" }
%"class.std::basic_ios" = type { %"class.std::ios_base", %"class.std::basic_ostream"*, i8, i8, %"class.std::basic_streambuf"*, %"class.std::ctype"*, %"class.std::num_put"*, %"class.std::num_get"* }
%"class.std::ios_base" = type { i32 (...)**, i64, i64, i32, i32, i32, %"struct.std::ios_base::_Callback_list"*, %"struct.std::ios_base::_Words", [8 x %"struct.std::ios_base::_Words"], i32, %"struct.std::ios_base::_Words"*, %"class.std::locale" }
%"struct.std::ios_base::_Callback_list" = type { %"struct.std::ios_base::_Callback_list"*, void (i32, %"class.std::ios_base"*, i32)*, i32, i32 }
%"struct.std::ios_base::_Words" = type { i8*, i64 }
%"class.std::locale" = type { %"class.std::locale::_Impl"* }
%"class.std::locale::_Impl" = type { i32, %"class.std::locale::facet"**, i64, %"class.std::locale::facet"**, i8** }
%"class.std::locale::facet" = type <{ i32 (...)**, i32, [4 x i8] }>
%"class.std::basic_ostream" = type { i32 (...)**, %"class.std::basic_ios" }
%"class.std::basic_streambuf" = type { i32 (...)**, i8*, i8*, i8*, i8*, i8*, i8*, %"class.std::locale" }
%"class.std::ctype" = type <{ %"class.std::locale::facet.base", [4 x i8], %struct.__locale_struct*, i8, [7 x i8], i32*, i32*, i16*, i8, [256 x i8], [256 x i8], i8, [6 x i8] }>
%"class.std::locale::facet.base" = type <{ i32 (...)**, i32 }>
%struct.__locale_struct = type { [13 x %struct.__locale_data*], i16*, i32*, i32*, [13 x i8*] }
%struct.__locale_data = type opaque
%"class.std::num_put" = type { %"class.std::locale::facet.base", [4 x i8] }
%"class.std::num_get" = type { %"class.std::locale::facet.base", [4 x i8] }

@_ZStL8__ioinit = internal global %"class.std::ios_base::Init" zeroinitializer, align 1
@__dso_handle = external hidden global i8
@a = dso_local global [100 x [300 x i32]] zeroinitializer, align 16
@_ZSt3cin = external dso_local global %"class.std::basic_istream", align 8
@_ZSt4cout = external dso_local global %"class.std::basic_ostream", align 8
@llvm.global_ctors = appending global [1 x { i32, void ()*, i8* }] [{ i32, void ()*, i8* } { i32 65535, void ()* @_GLOBAL__sub_I_392.cpp, i8* null }]

; Function Attrs: noinline uwtable
define internal void @__cxx_global_var_init() #0 section ".text.startup" {
  call void @_ZNSt8ios_base4InitC1Ev(%"class.std::ios_base::Init"* @_ZStL8__ioinit)
  %1 = call i32 @__cxa_atexit(void (i8*)* bitcast (void (%"class.std::ios_base::Init"*)* @_ZNSt8ios_base4InitD1Ev to void (i8*)*), i8* getelementptr inbounds (%"class.std::ios_base::Init", %"class.std::ios_base::Init"* @_ZStL8__ioinit, i32 0, i32 0), i8* @__dso_handle) #3
  ret void
}

declare dso_local void @_ZNSt8ios_base4InitC1Ev(%"class.std::ios_base::Init"*) unnamed_addr #1

; Function Attrs: nounwind
declare dso_local void @_ZNSt8ios_base4InitD1Ev(%"class.std::ios_base::Init"*) unnamed_addr #2

; Function Attrs: nounwind
declare dso_local i32 @__cxa_atexit(void (i8*)*, i8*, i8*) #3

; Function Attrs: noinline norecurse uwtable
define dso_local i32 @main() #4 {
  %1 = alloca i32, align 4
  %2 = alloca i32, align 4
  %3 = alloca i32, align 4
  %4 = alloca i32, align 4
  store i32 0, i32* %1, align 4
  %5 = call dereferenceable(280) %"class.std::basic_istream"* @_ZNSirsERi(%"class.std::basic_istream"* @_ZSt3cin, i32* dereferenceable(4) %2)
  store i32 1, i32* getelementptr inbounds ([100 x [300 x i32]], [100 x [300 x i32]]* @a, i64 0, i64 0, i64 1), align 4
  store i32 1, i32* %3, align 4
  br label %6

6:                                                ; preds = %12, %0
  %7 = load i32, i32* %3, align 4
  %8 = load i32, i32* %2, align 4
  %9 = icmp sle i32 %7, %8
  br i1 %9, label %10, label %15

10:                                               ; preds = %6
  %11 = load i32, i32* %3, align 4
  call void @_Z5chengi(i32 %11)
  br label %12

12:                                               ; preds = %10
  %13 = load i32, i32* %3, align 4
  %14 = add nsw i32 %13, 1
  store i32 %14, i32* %3, align 4
  br label %6

15:                                               ; preds = %6
  store i32 200, i32* %3, align 4
  br label %16

16:                                               ; preds = %31, %15
  %17 = load i32, i32* %3, align 4
  %18 = icmp sgt i32 %17, 0
  br i1 %18, label %19, label %34

19:                                               ; preds = %16
  %20 = load i32, i32* %2, align 4
  %21 = sext i32 %20 to i64
  %22 = getelementptr inbounds [100 x [300 x i32]], [100 x [300 x i32]]* @a, i64 0, i64 %21
  %23 = load i32, i32* %3, align 4
  %24 = sext i32 %23 to i64
  %25 = getelementptr inbounds [300 x i32], [300 x i32]* %22, i64 0, i64 %24
  %26 = load i32, i32* %25, align 4
  %27 = icmp ne i32 %26, 0
  br i1 %27, label %28, label %30

28:                                               ; preds = %19
  %29 = load i32, i32* %3, align 4
  store i32 %29, i32* %4, align 4
  br label %34

30:                                               ; preds = %19
  br label %31

31:                                               ; preds = %30
  %32 = load i32, i32* %3, align 4
  %33 = add nsw i32 %32, -1
  store i32 %33, i32* %3, align 4
  br label %16

34:                                               ; preds = %28, %16
  %35 = load i32, i32* %4, align 4
  store i32 %35, i32* %3, align 4
  br label %36

36:                                               ; preds = %48, %34
  %37 = load i32, i32* %3, align 4
  %38 = icmp sgt i32 %37, 0
  br i1 %38, label %39, label %51

39:                                               ; preds = %36
  %40 = load i32, i32* %2, align 4
  %41 = sext i32 %40 to i64
  %42 = getelementptr inbounds [100 x [300 x i32]], [100 x [300 x i32]]* @a, i64 0, i64 %41
  %43 = load i32, i32* %3, align 4
  %44 = sext i32 %43 to i64
  %45 = getelementptr inbounds [300 x i32], [300 x i32]* %42, i64 0, i64 %44
  %46 = load i32, i32* %45, align 4
  %47 = call dereferenceable(272) %"class.std::basic_ostream"* @_ZNSolsEi(%"class.std::basic_ostream"* @_ZSt4cout, i32 %46)
  br label %48

48:                                               ; preds = %39
  %49 = load i32, i32* %3, align 4
  %50 = add nsw i32 %49, -1
  store i32 %50, i32* %3, align 4
  br label %36

51:                                               ; preds = %36
  ret i32 0
}

declare dso_local dereferenceable(280) %"class.std::basic_istream"* @_ZNSirsERi(%"class.std::basic_istream"*, i32* dereferenceable(4)) #1

; Function Attrs: noinline nounwind uwtable
define dso_local void @_Z5chengi(i32 %0) #5 {
  %2 = alloca i32, align 4
  %3 = alloca i32, align 4
  store i32 %0, i32* %2, align 4
  store i32 1, i32* %3, align 4
  br label %4

4:                                                ; preds = %100, %1
  %5 = load i32, i32* %3, align 4
  %6 = icmp slt i32 %5, 200
  br i1 %6, label %7, label %103

7:                                                ; preds = %4
  %8 = load i32, i32* %2, align 4
  %9 = sext i32 %8 to i64
  %10 = getelementptr inbounds [100 x [300 x i32]], [100 x [300 x i32]]* @a, i64 0, i64 %9
  %11 = load i32, i32* %3, align 4
  %12 = sext i32 %11 to i64
  %13 = getelementptr inbounds [300 x i32], [300 x i32]* %10, i64 0, i64 %12
  %14 = load i32, i32* %13, align 4
  %15 = load i32, i32* %2, align 4
  %16 = sub nsw i32 %15, 1
  %17 = sext i32 %16 to i64
  %18 = getelementptr inbounds [100 x [300 x i32]], [100 x [300 x i32]]* @a, i64 0, i64 %17
  %19 = load i32, i32* %3, align 4
  %20 = sext i32 %19 to i64
  %21 = getelementptr inbounds [300 x i32], [300 x i32]* %18, i64 0, i64 %20
  %22 = load i32, i32* %21, align 4
  %23 = mul nsw i32 %22, 2
  %24 = add nsw i32 %14, %23
  %25 = load i32, i32* %2, align 4
  %26 = sext i32 %25 to i64
  %27 = getelementptr inbounds [100 x [300 x i32]], [100 x [300 x i32]]* @a, i64 0, i64 %26
  %28 = load i32, i32* %3, align 4
  %29 = sext i32 %28 to i64
  %30 = getelementptr inbounds [300 x i32], [300 x i32]* %27, i64 0, i64 %29
  store i32 %24, i32* %30, align 4
  %31 = load i32, i32* %2, align 4
  %32 = sext i32 %31 to i64
  %33 = getelementptr inbounds [100 x [300 x i32]], [100 x [300 x i32]]* @a, i64 0, i64 %32
  %34 = load i32, i32* %3, align 4
  %35 = sext i32 %34 to i64
  %36 = getelementptr inbounds [300 x i32], [300 x i32]* %33, i64 0, i64 %35
  %37 = load i32, i32* %36, align 4
  %38 = icmp sgt i32 %37, 9
  br i1 %38, label %39, label %63

39:                                               ; preds = %7
  %40 = load i32, i32* %2, align 4
  %41 = sext i32 %40 to i64
  %42 = getelementptr inbounds [100 x [300 x i32]], [100 x [300 x i32]]* @a, i64 0, i64 %41
  %43 = load i32, i32* %3, align 4
  %44 = sext i32 %43 to i64
  %45 = getelementptr inbounds [300 x i32], [300 x i32]* %42, i64 0, i64 %44
  %46 = load i32, i32* %45, align 4
  %47 = sub nsw i32 %46, 10
  %48 = load i32, i32* %2, align 4
  %49 = sext i32 %48 to i64
  %50 = getelementptr inbounds [100 x [300 x i32]], [100 x [300 x i32]]* @a, i64 0, i64 %49
  %51 = load i32, i32* %3, align 4
  %52 = sext i32 %51 to i64
  %53 = getelementptr inbounds [300 x i32], [300 x i32]* %50, i64 0, i64 %52
  store i32 %47, i32* %53, align 4
  %54 = load i32, i32* %2, align 4
  %55 = sext i32 %54 to i64
  %56 = getelementptr inbounds [100 x [300 x i32]], [100 x [300 x i32]]* @a, i64 0, i64 %55
  %57 = load i32, i32* %3, align 4
  %58 = add nsw i32 %57, 1
  %59 = sext i32 %58 to i64
  %60 = getelementptr inbounds [300 x i32], [300 x i32]* %56, i64 0, i64 %59
  %61 = load i32, i32* %60, align 4
  %62 = add nsw i32 %61, 1
  store i32 %62, i32* %60, align 4
  br label %63

63:                                               ; preds = %39, %7
  %64 = load i32, i32* %2, align 4
  %65 = sext i32 %64 to i64
  %66 = getelementptr inbounds [100 x [300 x i32]], [100 x [300 x i32]]* @a, i64 0, i64 %65
  %67 = load i32, i32* %3, align 4
  %68 = add nsw i32 %67, 1
  %69 = sext i32 %68 to i64
  %70 = getelementptr inbounds [300 x i32], [300 x i32]* %66, i64 0, i64 %69
  %71 = load i32, i32* %70, align 4
  %72 = icmp sgt i32 %71, 9
  br i1 %72, label %73, label %99

73:                                               ; preds = %63
  %74 = load i32, i32* %2, align 4
  %75 = sext i32 %74 to i64
  %76 = getelementptr inbounds [100 x [300 x i32]], [100 x [300 x i32]]* @a, i64 0, i64 %75
  %77 = load i32, i32* %3, align 4
  %78 = add nsw i32 %77, 1
  %79 = sext i32 %78 to i64
  %80 = getelementptr inbounds [300 x i32], [300 x i32]* %76, i64 0, i64 %79
  %81 = load i32, i32* %80, align 4
  %82 = sub nsw i32 %81, 10
  %83 = load i32, i32* %2, align 4
  %84 = sext i32 %83 to i64
  %85 = getelementptr inbounds [100 x [300 x i32]], [100 x [300 x i32]]* @a, i64 0, i64 %84
  %86 = load i32, i32* %3, align 4
  %87 = add nsw i32 %86, 1
  %88 = sext i32 %87 to i64
  %89 = getelementptr inbounds [300 x i32], [300 x i32]* %85, i64 0, i64 %88
  store i32 %82, i32* %89, align 4
  %90 = load i32, i32* %2, align 4
  %91 = sext i32 %90 to i64
  %92 = getelementptr inbounds [100 x [300 x i32]], [100 x [300 x i32]]* @a, i64 0, i64 %91
  %93 = load i32, i32* %3, align 4
  %94 = add nsw i32 %93, 2
  %95 = sext i32 %94 to i64
  %96 = getelementptr inbounds [300 x i32], [300 x i32]* %92, i64 0, i64 %95
  %97 = load i32, i32* %96, align 4
  %98 = add nsw i32 %97, 1
  store i32 %98, i32* %96, align 4
  br label %99

99:                                               ; preds = %73, %63
  br label %100

100:                                              ; preds = %99
  %101 = load i32, i32* %3, align 4
  %102 = add nsw i32 %101, 1
  store i32 %102, i32* %3, align 4
  br label %4

103:                                              ; preds = %4
  ret void
}

declare dso_local dereferenceable(272) %"class.std::basic_ostream"* @_ZNSolsEi(%"class.std::basic_ostream"*, i32) #1

; Function Attrs: noinline uwtable
define internal void @_GLOBAL__sub_I_392.cpp() #0 section ".text.startup" {
  call void @__cxx_global_var_init()
  ret void
}


!llvm.module.flags = !{!0}
!llvm.ident = !{!1}

!0 = !{i32 1, !"wchar_size", i32 4}
!1 = !{!"clang version 10.0.0-4ubuntu1 "}
